; Function Attrs: mustprogress nounwind willreturn uwtable
define void @Sbd_StoComputeCutsCi(ptr noundef readonly captures(none) %0, i32 noundef %1, i32 noundef %2, i32 noundef %3) local_unnamed_addr #6 {
  tail call void @Sbd_StoComputeCutsObj(ptr noundef %0, i32 noundef %1, i32 noundef %2, i32 noundef %3)
  %5 = getelementptr i8, ptr %0, i64 64
  %.val = load ptr, ptr %5, align 8, !tbaa !107
  %6 = getelementptr i8, ptr %.val, i64 8
  %.val.val = load ptr, ptr %6, align 8, !tbaa !108
  tail call fastcc void @Sbd_CutAddUnit(ptr %.val.val, i32 noundef %1)
  ret void
}